ASxxxx Assembler V02.00 + NoICE + SDCC mods  (Zilog Z80 / Hitachi HD64180), page 1.
Hexadecimal [16-Bits]



                              1 ;===================================================================================================================================================
                              2 ; CPCTelera functions
                              3 ;===================================================================================================================================================
                              4 .globl cpct_scanKeyboard_f_asm
                              5 .globl cpct_isKeyPressed_asm
                              6 
                              7 ;===================================================================================================================================================
                              8 ; Public functions
                              9 ;===================================================================================================================================================
                             10 .globl _man_entityForAllMatching
                             11 .globl _man_entityDestroy
                             12 .globl _man_setEntity4Destroy
                             13 .globl _m_game_playerShot
                             14 
                             15 ;===================================================================================================================================================
                             16 ; Public data
                             17 ;===================================================================================================================================================
                             18 .globl _m_functionMemory
                             19 .globl _m_matchedEntity
                             20 
                             21 ;===================================================================================================================================================
                             22 ; FUNCION _sys_physics_update
                             23 ; Llama a la inversión de control para updatear las fisicas de cada entidad que coincida con e_type_movable
                             24 ; NO llega ningun dato
                             25 ;===================================================================================================================================================
   0000                      26 _sys_physics_update::
   0000 21 44 00      [10]   27     ld hl, #_sys_physics_updateOneEntity
   0003 22 00 00      [16]   28     ld (_m_functionMemory), hl
   0006 21 00 00      [10]   29     ld hl , #_m_matchedEntity 
   0009 36 02         [10]   30     ld (hl), #0x02  ; e_type_movable
   000B CD 00 00      [17]   31     call _man_entityForAllMatching
   000E C9            [10]   32     ret
                             33 
                             34 
                             35 ;===================================================================================================================================================
                             36 ; FUNCION _sys_physics_checkKeyboard
                             37 ; Cambia el valor de la velocidad en x si se pulsa la tecla : O o P
                             38 ; Y manda la orden de disparar si pulsa Espacio
                             39 ; HL : LA entidad a updatear
                             40 ;===================================================================================================================================================
   000F                      41 _sys_physics_checkKeyboard::
   000F 23            [ 6]   42     inc hl
   0010 23            [ 6]   43     inc hl
   0011 23            [ 6]   44     inc hl
   0012 23            [ 6]   45     inc hl
   0013 23            [ 6]   46     inc hl
   0014 23            [ 6]   47     inc hl
   0015 E5            [11]   48     push hl
                             49 
   0016 CD 00 00      [17]   50     call cpct_scanKeyboard_f_asm
                             51     
   0019 21 04 04      [10]   52     ld hl, #0x0404  ;;Key O
   001C CD 00 00      [17]   53     call cpct_isKeyPressed_asm
   001F 20 0E         [12]   54     jr NZ, leftPressed
                             55 
ASxxxx Assembler V02.00 + NoICE + SDCC mods  (Zilog Z80 / Hitachi HD64180), page 2.
Hexadecimal [16-Bits]



   0021 21 03 08      [10]   56     ld hl, #0x0803 ;;Key P
   0024 CD 00 00      [17]   57     call cpct_isKeyPressed_asm
   0027 20 0C         [12]   58     jr NZ, rightPressed
                             59 
   0029 E1            [10]   60     pop hl
   002A 36 00         [10]   61     ld (hl), #0x00
                             62 
   002C C3 38 00      [10]   63     jp stopCheckMovement
   002F                      64     leftPressed:
   002F E1            [10]   65         pop hl
   0030 36 FF         [10]   66         ld (hl), #0xFF
   0032 C3 38 00      [10]   67         jp stopCheckMovement
   0035                      68     rightPressed:
   0035 E1            [10]   69         pop hl
   0036 36 01         [10]   70         ld (hl), #0x01
                             71 
   0038                      72     stopCheckMovement:
                             73 
   0038 21 05 80      [10]   74     ld hl, #0x8005 ;;Key SpaceBar
   003B CD 00 00      [17]   75     call cpct_isKeyPressed_asm
   003E 28 03         [12]   76     jr Z, dontShoot
   0040 CD 00 00      [17]   77     call _m_game_playerShot
                             78 
   0043                      79     dontShoot:
   0043 C9            [10]   80     ret
                             81 
                             82 
                             83 
                             84 
                             85 
                             86 ;===================================================================================================================================================
                             87 ; FUNCION _sys_physics_updateOneEntity
                             88 ; Updatea las posiciones de las entidades en funcion de 
                             89 ; los valores de sus velocidades
                             90 ; HL : Entidad a updatear
                             91 ;===================================================================================================================================================
   0044                      92 _sys_physics_updateOneEntity::    
   0044 E5            [11]   93     push hl
   0045 23            [ 6]   94     inc hl
   0046 7E            [ 7]   95     ld a,(hl) 
   0047 2B            [ 6]   96     dec hl
   0048 E6 04         [ 7]   97     and #0x04
   004A 44            [ 4]   98     ld b,h
   004B 4D            [ 4]   99     ld c,l
   004C 28 03         [12]  100     jr Z,noInput
   004E CD 0F 00      [17]  101     call _sys_physics_checkKeyboard
   0051                     102     noInput:
   0051 E1            [10]  103     pop hl
                            104 
   0052 23            [ 6]  105     inc hl
   0053 23            [ 6]  106     inc hl
   0054 46            [ 7]  107     ld  b,(hl) ; posX
   0055 23            [ 6]  108     inc hl
   0056 56            [ 7]  109     ld  d,(hl) ; posY 
                            110 
ASxxxx Assembler V02.00 + NoICE + SDCC mods  (Zilog Z80 / Hitachi HD64180), page 3.
Hexadecimal [16-Bits]



   0057 23            [ 6]  111     inc hl
   0058 23            [ 6]  112     inc hl
   0059 23            [ 6]  113     inc hl
   005A 4E            [ 7]  114     ld c,(hl) ; velX
   005B 23            [ 6]  115     inc hl
   005C 5E            [ 7]  116     ld e,(hl) ; vely
                            117 
   005D 3E 05         [ 7]  118     ld a, #0x05
   005F                     119     setHLposX:
   005F 2B            [ 6]  120         dec hl
   0060 3D            [ 4]  121         dec a
   0061 20 FC         [12]  122         jr NZ, setHLposX
                            123 
   0063 78            [ 4]  124     ld a,b
   0064 81            [ 4]  125     add a,c
   0065 77            [ 7]  126     ld (hl),a
                            127 
   0066 23            [ 6]  128     inc hl
                            129     
   0067 7A            [ 4]  130     ld a,d
   0068 83            [ 4]  131     add a,e
   0069 77            [ 7]  132     ld (hl),a
                            133     
   006A C9            [10]  134    ret
